; Function Attrs: mustprogress nounwind uwtable
define internal fastcc void @_ZN12_GLOBAL__N_120SelectionDAGLegalize20ReplaceNodeWithValueEN4llvm7SDValueES2_(ptr noundef nonnull readonly align 8 captures(none) dereferenceable(40) %0, ptr %1, i32 %2, ptr %3, i32 %4) unnamed_addr #0 align 2 {
  %6 = alloca ptr, align 8
  %7 = alloca ptr, align 8
  %8 = getelementptr inbounds nuw i8, ptr %0, i64 16
  %9 = load ptr, ptr %8, align 8
  tail call void @_ZN4llvm12SelectionDAG25ReplaceAllUsesOfValueWithENS_7SDValueES1_(ptr noundef nonnull align 8 dereferenceable(904) %9, ptr %1, i32 %2, ptr %3, i32 %4) #18
  %10 = getelementptr inbounds nuw i8, ptr %0, i64 32
  %11 = load ptr, ptr %10, align 8
  %.not = icmp eq ptr %11, null
  br i1 %.not, label %14, label %12

12:                                               ; preds = %5
  store ptr %3, ptr %7, align 8
  %13 = call noundef zeroext i1 @_ZN4llvm9SetVectorIPNS_6SDNodeENS_11SmallVectorIS2_Lj16EEENS_8DenseSetIS2_NS_12DenseMapInfoIS2_vEEEELj16EE6insertERKS2_(ptr noundef nonnull align 8 dereferenceable(168) %11, ptr noundef nonnull align 8 dereferenceable(8) %7)
  br label %14

14:                                               ; preds = %12, %5
  call void @llvm.lifetime.start.p0(i64 8, ptr nonnull %6)
  store ptr %1, ptr %6, align 8
  %15 = getelementptr inbounds nuw i8, ptr %0, i64 24
  %16 = load ptr, ptr %15, align 8
  %17 = getelementptr inbounds nuw i8, ptr %16, i64 8
  %18 = load ptr, ptr %17, align 8
  %19 = load ptr, ptr %16, align 8
  %20 = icmp eq ptr %18, %19
  br i1 %20, label %21, label %35

21:                                               ; preds = %14
  %22 = getelementptr inbounds nuw i8, ptr %16, i64 20
  %23 = load i32, ptr %22, align 4
  %24 = zext i32 %23 to i64
  %25 = getelementptr inbounds nuw ptr, ptr %19, i64 %24
  %.not1315.i.i.i = icmp eq i32 %23, 0
  br i1 %.not1315.i.i.i, label %_ZN4llvm15SmallPtrSetImplIPNS_6SDNodeEE5eraseES2_.exit.i, label %.lr.ph.i.i.i

.lr.ph.i.i.i:                                     ; preds = %21, %33
  %.01116.i.i.i = phi ptr [ %34, %33 ], [ %19, %21 ]
  %26 = load ptr, ptr %.01116.i.i.i, align 8
  %27 = icmp eq ptr %26, %1
  br i1 %27, label %28, label %33

28:                                               ; preds = %.lr.ph.i.i.i
  %29 = add i32 %23, -1
  store i32 %29, ptr %22, align 4
  %30 = zext i32 %29 to i64
  %31 = getelementptr inbounds nuw ptr, ptr %19, i64 %30
  %32 = load ptr, ptr %31, align 8
  store ptr %32, ptr %.01116.i.i.i, align 8
  br label %_ZN4llvm15SmallPtrSetImplIPNS_6SDNodeEE5eraseES2_.exit.i

33:                                               ; preds = %.lr.ph.i.i.i
  %34 = getelementptr inbounds nuw i8, ptr %.01116.i.i.i, i64 8
  %.not13.i.i.i = icmp eq ptr %34, %25
  br i1 %.not13.i.i.i, label %_ZN4llvm15SmallPtrSetImplIPNS_6SDNodeEE5eraseES2_.exit.i, label %.lr.ph.i.i.i, !llvm.loop !13

35:                                               ; preds = %14
  %36 = call noundef ptr @_ZNK4llvm19SmallPtrSetImplBase6doFindEPKv(ptr noundef nonnull align 8 dereferenceable(28) %16, ptr noundef %1) #18
  %.not.i.i.i = icmp eq ptr %36, null
  br i1 %.not.i.i.i, label %_ZN4llvm15SmallPtrSetImplIPNS_6SDNodeEE5eraseES2_.exit.i, label %37

37:                                               ; preds = %35
  store ptr inttoptr (i64 -2 to ptr), ptr %36, align 8
  %38 = getelementptr inbounds nuw i8, ptr %16, i64 24
  %39 = load i32, ptr %38, align 8
  %40 = add i32 %39, 1
  store i32 %40, ptr %38, align 8
  br label %_ZN4llvm15SmallPtrSetImplIPNS_6SDNodeEE5eraseES2_.exit.i

_ZN4llvm15SmallPtrSetImplIPNS_6SDNodeEE5eraseES2_.exit.i: ; preds = %33, %37, %35, %28, %21
  %41 = load ptr, ptr %10, align 8
  %.not.i = icmp eq ptr %41, null
  br i1 %.not.i, label %_ZN12_GLOBAL__N_120SelectionDAGLegalize12ReplacedNodeEPN4llvm6SDNodeE.exit, label %42

42:                                               ; preds = %_ZN4llvm15SmallPtrSetImplIPNS_6SDNodeEE5eraseES2_.exit.i
  %43 = call noundef zeroext i1 @_ZN4llvm9SetVectorIPNS_6SDNodeENS_11SmallVectorIS2_Lj16EEENS_8DenseSetIS2_NS_12DenseMapInfoIS2_vEEEELj16EE6insertERKS2_(ptr noundef nonnull align 8 dereferenceable(168) %41, ptr noundef nonnull align 8 dereferenceable(8) %6)
  br label %_ZN12_GLOBAL__N_120SelectionDAGLegalize12ReplacedNodeEPN4llvm6SDNodeE.exit

_ZN12_GLOBAL__N_120SelectionDAGLegalize12ReplacedNodeEPN4llvm6SDNodeE.exit: ; preds = %_ZN4llvm15SmallPtrSetImplIPNS_6SDNodeEE5eraseES2_.exit.i, %42
  call void @llvm.lifetime.end.p0(i64 8, ptr nonnull %6)
  ret void
}